; Function Attrs: nounwind uwtable
define ptr @l_Lean_LocalContext_get_x21(ptr noundef %0, ptr noundef %1) local_unnamed_addr #2 {
  %3 = tail call ptr @lean_local_ctx_find(ptr noundef %0, ptr noundef %1)
  %4 = ptrtoint ptr %3 to i64
  %5 = and i64 %4, 1
  %.not.i10 = icmp eq i64 %5, 0
  br i1 %.not.i10, label %9, label %6

6:                                                ; preds = %2
  %7 = lshr i64 %4, 1
  %8 = trunc i64 %7 to i32
  br label %lean_obj_tag.exit

9:                                                ; preds = %2
  %10 = getelementptr i8, ptr %3, i64 4
  %.val.i = load i32, ptr %10, align 4
  %11 = lshr i32 %.val.i, 24
  br label %lean_obj_tag.exit

lean_obj_tag.exit:                                ; preds = %6, %9
  %.0.i = phi i32 [ %8, %6 ], [ %11, %9 ]
  %12 = icmp eq i32 %.0.i, 0
  br i1 %12, label %13, label %17

13:                                               ; preds = %lean_obj_tag.exit
  %14 = load ptr, ptr @l_Lean_LocalContext_get_x21___closed__3, align 8, !tbaa !9
  %15 = load ptr, ptr @l_Lean_instInhabitedLocalDecl, align 8, !tbaa !9
  %16 = tail call ptr @lean_panic_fn(ptr noundef %15, ptr noundef %14) #8
  br label %lean_dec.exit

17:                                               ; preds = %lean_obj_tag.exit
  %18 = getelementptr inbounds nuw i8, ptr %3, i64 8
  %19 = load ptr, ptr %18, align 8, !tbaa !9
  %20 = ptrtoint ptr %19 to i64
  %21 = and i64 %20, 1
  %.not = icmp eq i64 %21, 0
  br i1 %.not, label %22, label %lean_inc.exit

22:                                               ; preds = %17
  %.val.i11 = load i32, ptr %19, align 4, !tbaa !4
  %23 = icmp sgt i32 %.val.i11, 0
  br i1 %23, label %24, label %26, !prof !11

24:                                               ; preds = %22
  %25 = add nuw i32 %.val.i11, 1
  store i32 %25, ptr %19, align 4, !tbaa !4
  br label %lean_inc.exit

26:                                               ; preds = %22
  %.not.i12 = icmp eq i32 %.val.i11, 0
  br i1 %.not.i12, label %lean_inc.exit, label %27

27:                                               ; preds = %26
  tail call void @lean_inc_ref_cold(ptr noundef nonnull %19) #8
  br label %lean_inc.exit

lean_inc.exit:                                    ; preds = %27, %26, %24, %17
  br i1 %.not.i10, label %28, label %lean_dec.exit

28:                                               ; preds = %lean_inc.exit
  %29 = load i32, ptr %3, align 4, !tbaa !4
  %30 = icmp sgt i32 %29, 1
  br i1 %30, label %31, label %33, !prof !11

31:                                               ; preds = %28
  %32 = add nsw i32 %29, -1
  store i32 %32, ptr %3, align 4, !tbaa !4
  br label %lean_dec.exit

33:                                               ; preds = %28
  %.not.i = icmp eq i32 %29, 0
  br i1 %.not.i, label %lean_dec.exit, label %34

34:                                               ; preds = %33
  tail call void @lean_dec_ref_cold(ptr noundef nonnull %3) #8
  br label %lean_dec.exit

lean_dec.exit:                                    ; preds = %lean_inc.exit, %31, %33, %34, %13
  %.0 = phi ptr [ %16, %13 ], [ %19, %34 ], [ %19, %33 ], [ %19, %31 ], [ %19, %lean_inc.exit ]
  ret ptr %.0
}